; Function Attrs: nounwind uwtable
define dso_local void @stats_prefix_record_set(ptr noundef %0, i64 noundef %1) local_unnamed_addr #2 {
  tail call void @STATS_LOCK() #11
  %3 = tail call ptr @stats_prefix_find(ptr noundef %0, i64 noundef %1)
  %.not = icmp eq ptr %3, null
  br i1 %.not, label %8, label %4

4:                                                ; preds = %2
  %5 = getelementptr inbounds nuw i8, ptr %3, i64 24
  %6 = load i64, ptr %5, align 8, !tbaa !27
  %7 = add i64 %6, 1
  store i64 %7, ptr %5, align 8, !tbaa !27
  br label %8

8:                                                ; preds = %4, %2
  tail call void @STATS_UNLOCK() #11
  ret void
}